; Function Attrs: null_pointer_is_valid sspstrong uwtable
define internal void @dtap_mm_loc_upd_rej(ptr noundef %0, ptr noundef %1, ptr noundef %2, i32 noundef %3, i32 noundef %4) #1 {
  store i1 false, ptr @is_uplink, align 4
  %6 = icmp sgt i32 %4, 0
  br i1 %6, label %7, label %13

7:                                                ; preds = %5
  %8 = tail call zeroext i16 @elem_v(ptr noundef %0, ptr noundef %1, ptr noundef %2, i32 noundef 1, i32 noundef 9, i32 noundef %3, ptr noundef null)
  %.not = icmp eq i16 %8, 0
  br i1 %.not, label %13, label %9

9:                                                ; preds = %7
  %10 = zext i16 %8 to i32
  %11 = add i32 %3, %10
  %12 = sub nsw i32 %4, %10
  br label %16

13:                                               ; preds = %7, %5
  %14 = tail call ptr @get_gsm_a_msg_string(i32 noundef 1, i32 noundef 9)
  %15 = tail call ptr (ptr, ptr, ptr, ptr, i32, i32, ptr, ...) @proto_tree_add_expert_format(ptr noundef %1, ptr noundef %2, ptr noundef nonnull @ei_gsm_a_dtap_missing_mandatory_element, ptr noundef %0, i32 noundef %3, i32 noundef 0, ptr noundef nonnull @.str.1325, ptr noundef %14, ptr noundef nonnull @.str.824)
  br label %16

16:                                               ; preds = %13, %9
  %.032 = phi i32 [ %11, %9 ], [ %3, %13 ]
  %.0 = phi i32 [ %12, %9 ], [ %4, %13 ]
  %17 = icmp slt i32 %.0, 1
  br i1 %17, label %25, label %18

18:                                               ; preds = %16
  %19 = tail call zeroext i16 @elem_tlv(ptr noundef %0, ptr noundef %1, ptr noundef %2, i8 noundef zeroext 54, i32 noundef 1, i32 noundef 18, i32 noundef %.032, i32 noundef %.0, ptr noundef nonnull @.str.1339)
  %20 = zext i16 %19 to i32
  %.not38 = icmp eq i32 %.0, %20
  br i1 %.not38, label %25, label %21

21:                                               ; preds = %18
  %22 = sub nsw i32 %.0, %20
  %23 = add i32 %.032, %20
  %24 = tail call ptr @proto_tree_add_expert(ptr noundef %1, ptr noundef %2, ptr noundef nonnull @ei_gsm_a_dtap_extraneous_data, ptr noundef %0, i32 noundef %23, i32 noundef %22)
  br label %25

25:                                               ; preds = %18, %21, %16
  ret void
}